; Function Attrs: mustprogress uwtable
define hidden void @_ZN19maximize_ac_sharing9pop_scopeEj(ptr noundef nonnull align 8 dereferenceable(112) %this, i32 noundef %num_scopes) local_unnamed_addr #3 align 2 {
entry:
  %m_scopes = getelementptr inbounds i8, ptr %this, i64 96
  %0 = load ptr, ptr %m_scopes, align 8
  %cmp.i = icmp eq ptr %0, null
  br i1 %cmp.i, label %_ZNK6vectorIjLb0EjE4sizeEv.exit, label %if.end.i

if.end.i:                                         ; preds = %entry
  %arrayidx.i = getelementptr inbounds i8, ptr %0, i64 -4
  %1 = load i32, ptr %arrayidx.i, align 4
  br label %_ZNK6vectorIjLb0EjE4sizeEv.exit

_ZNK6vectorIjLb0EjE4sizeEv.exit:                  ; preds = %entry, %if.end.i
  %retval.0.i = phi i32 [ %1, %if.end.i ], [ 0, %entry ]
  %sub = sub i32 %retval.0.i, %num_scopes
  %idxprom.i = zext i32 %sub to i64
  %arrayidx.i3 = getelementptr inbounds i32, ptr %0, i64 %idxprom.i
  %2 = load i32, ptr %arrayidx.i3, align 4
  tail call void @_ZN19maximize_ac_sharing15restore_entriesEj(ptr noundef nonnull align 8 dereferenceable(112) %this, i32 noundef %2)
  %m_region = getelementptr inbounds i8, ptr %this, i64 24
  %cmp2.not.i = icmp eq i32 %num_scopes, 0
  br i1 %cmp2.not.i, label %_ZN6region9pop_scopeEj.exit, label %for.body.i

for.body.i:                                       ; preds = %_ZNK6vectorIjLb0EjE4sizeEv.exit, %for.body.i
  %i.03.i = phi i32 [ %inc.i, %for.body.i ], [ 0, %_ZNK6vectorIjLb0EjE4sizeEv.exit ]
  tail call void @_ZN6region9pop_scopeEv(ptr noundef nonnull align 8 dereferenceable(40) %m_region)
  %inc.i = add nuw i32 %i.03.i, 1
  %exitcond.not.i = icmp eq i32 %inc.i, %num_scopes
  br i1 %exitcond.not.i, label %_ZN6region9pop_scopeEj.exit, label %for.body.i, !llvm.loop !17

_ZN6region9pop_scopeEj.exit:                      ; preds = %for.body.i, %_ZNK6vectorIjLb0EjE4sizeEv.exit
  %3 = load ptr, ptr %m_scopes, align 8
  %tobool.not.i = icmp eq ptr %3, null
  br i1 %tobool.not.i, label %_ZN6vectorIjLb0EjE6shrinkEj.exit, label %if.then.i

if.then.i:                                        ; preds = %_ZN6region9pop_scopeEj.exit
  %arrayidx.i4 = getelementptr inbounds i8, ptr %3, i64 -4
  store i32 %sub, ptr %arrayidx.i4, align 4
  br label %_ZN6vectorIjLb0EjE6shrinkEj.exit

_ZN6vectorIjLb0EjE6shrinkEj.exit:                 ; preds = %_ZN6region9pop_scopeEj.exit, %if.then.i
  ret void
}